target datalayout = "e-m:e-p270:32:32-p271:32:32-p272:64:64-i64:64-i128:128-f80:128-n8:16:32:64-S128"
target triple = "x86_64-pc-linux-gnu"

%"class.cv::Mat" = type { i32, i32, i32, i32, ptr, ptr, ptr, ptr, ptr, ptr, %"struct.cv::MatSize", %"struct.cv::MatStep" }
%"struct.cv::MatSize" = type { ptr }
%"struct.cv::MatStep" = type { ptr, [2 x i64] }
%"class.cv::Rect_.3" = type { float, float, float, float }
%"class.cv::TrackerDaSiamRPNImpl" = type { %"class.cv::TrackerDaSiamRPN", %"class.cv::dnn::dnn4_v20241223::Net", %"class.cv::dnn::dnn4_v20241223::Net", %"class.cv::dnn::dnn4_v20241223::Net", %"class.cv::Rect_", %"class.cv::Mat", %"struct.cv::TrackerDaSiamRPNImpl::trackerConfig" }
%"class.cv::TrackerDaSiamRPN" = type { %"class.cv::Tracker" }
%"class.cv::Tracker" = type { ptr }
%"class.cv::dnn::dnn4_v20241223::Net" = type { %"struct.cv::Ptr" }
%"struct.cv::Ptr" = type { %"class.std::shared_ptr" }
%"class.std::shared_ptr" = type { %"class.std::__shared_ptr" }
%"class.std::__shared_ptr" = type { ptr, %"class.std::__shared_count" }
%"class.std::__shared_count" = type { ptr }
%"class.cv::Rect_" = type { i32, i32, i32, i32 }
%"struct.cv::TrackerDaSiamRPNImpl::trackerConfig" = type { float, float, i32, i8, i32, float, i32, i32, float, %"class.std::vector", i32, %"class.cv::Mat", %"class.cv::Mat", %"class.cv::Scalar_", %"class.cv::Size_", %"class.cv::Rect_.3", i32, float }
%"class.std::vector" = type { %"struct.std::_Vector_base" }
%"struct.std::_Vector_base" = type { %"struct.std::_Vector_base<float, std::allocator<float>>::_Vector_impl" }
%"struct.std::_Vector_base<float, std::allocator<float>>::_Vector_impl" = type { %"struct.std::_Vector_base<float, std::allocator<float>>::_Vector_impl_data" }
%"struct.std::_Vector_base<float, std::allocator<float>>::_Vector_impl_data" = type { ptr, ptr, ptr }
%"class.cv::Scalar_" = type { %"class.cv::Vec" }
%"class.cv::Vec" = type { %"class.cv::Matx" }
%"class.cv::Matx" = type { [4 x double] }
%"class.cv::Size_" = type { i32, i32 }
%"class.cv::_InputArray" = type { i32, ptr, %"class.cv::Size_" }

; Function Attrs: inlinehint mustprogress nounwind uwtable
define linkonce_odr hidden void @_ZN2cv5Rect_IfEC2Effff(ptr noundef nonnull align 4 dereferenceable(16) %0, float noundef %1, float noundef %2, float noundef %3, float noundef %4) unnamed_addr #8 comdat align 2 {
  %6 = alloca ptr, align 8
  %7 = alloca float, align 4
  %8 = alloca float, align 4
  %9 = alloca float, align 4
  %10 = alloca float, align 4
  store ptr %0, ptr %6, align 8, !tbaa !65
  store float %1, ptr %7, align 4, !tbaa !35
  store float %2, ptr %8, align 4, !tbaa !35
  store float %3, ptr %9, align 4, !tbaa !35
  store float %4, ptr %10, align 4, !tbaa !35
  %11 = load ptr, ptr %6, align 8
  %12 = getelementptr inbounds nuw %"class.cv::Rect_.3", ptr %11, i32 0, i32 0
  %13 = load float, ptr %7, align 4, !tbaa !35
  store float %13, ptr %12, align 4, !tbaa !67
  %14 = getelementptr inbounds nuw %"class.cv::Rect_.3", ptr %11, i32 0, i32 1
  %15 = load float, ptr %8, align 4, !tbaa !35
  store float %15, ptr %14, align 4, !tbaa !68
  %16 = getelementptr inbounds nuw %"class.cv::Rect_.3", ptr %11, i32 0, i32 2
  %17 = load float, ptr %9, align 4, !tbaa !35
  store float %17, ptr %16, align 4, !tbaa !69
  %18 = getelementptr inbounds nuw %"class.cv::Rect_.3", ptr %11, i32 0, i32 3
  %19 = load float, ptr %10, align 4, !tbaa !35
  store float %19, ptr %18, align 4, !tbaa !70
  ret void
}

; Function Attrs: mustprogress nounwind uwtable
define linkonce_odr hidden void @_ZN2cv20TrackerDaSiamRPNImpl13trackerConfig16update_scoreSizeEv(ptr noundef nonnull align 8 dereferenceable(328) %0) #3 comdat align 2 {
  %2 = alloca ptr, align 8
  store ptr %0, ptr %2, align 8, !tbaa !41
  %3 = load ptr, ptr %2, align 8
  %4 = getelementptr inbounds nuw %"struct.cv::TrackerDaSiamRPNImpl::trackerConfig", ptr %3, i32 0, i32 7
  %5 = load i32, ptr %4, align 4, !tbaa !43
  %6 = getelementptr inbounds nuw %"struct.cv::TrackerDaSiamRPNImpl::trackerConfig", ptr %3, i32 0, i32 6
  %7 = load i32, ptr %6, align 8, !tbaa !62
  %8 = sub nsw i32 %5, %7
  %9 = getelementptr inbounds nuw %"struct.cv::TrackerDaSiamRPNImpl::trackerConfig", ptr %3, i32 0, i32 4
  %10 = load i32, ptr %9, align 8, !tbaa !63
  %11 = sdiv i32 %8, %10
  %12 = add nsw i32 %11, 1
  %13 = getelementptr inbounds nuw %"struct.cv::TrackerDaSiamRPNImpl::trackerConfig", ptr %3, i32 0, i32 16
  store i32 %12, ptr %13, align 8, !tbaa !64
  ret void
}

; Function Attrs: inlinehint mustprogress uwtable
define linkonce_odr hidden void @_ZNK2cv11_InputArray6getMatEi(ptr dead_on_unwind noalias writable sret(%"class.cv::Mat") align 8 %0, ptr noundef nonnull align 8 dereferenceable(24) %1, i32 noundef %2) #6 comdat align 2 {
  %4 = alloca ptr, align 8
  %5 = alloca ptr, align 8
  %6 = alloca i32, align 4
  store ptr %0, ptr %4, align 8
  store ptr %1, ptr %5, align 8, !tbaa !25
  store i32 %2, ptr %6, align 4, !tbaa !37
  %7 = load ptr, ptr %5, align 8
  %8 = call noundef i32 @_ZNK2cv11_InputArray4kindEv(ptr noundef nonnull align 8 dereferenceable(24) %7)
  %9 = icmp eq i32 %8, 65536
  br i1 %9, label %10, label %16

10:                                               ; preds = %3
  %11 = load i32, ptr %6, align 4, !tbaa !37
  %12 = icmp slt i32 %11, 0
  br i1 %12, label %13, label %16

13:                                               ; preds = %10
  %14 = getelementptr inbounds nuw %"class.cv::_InputArray", ptr %7, i32 0, i32 1
  %15 = load ptr, ptr %14, align 8, !tbaa !38
  call void @_ZN2cv3MatC1ERKS0_(ptr noundef nonnull align 8 dereferenceable(96) %0, ptr noundef nonnull align 8 dereferenceable(96) %15)
  br label %18

16:                                               ; preds = %10, %3
  %17 = load i32, ptr %6, align 4, !tbaa !37
  call void @_ZNK2cv11_InputArray7getMat_Ei(ptr dead_on_unwind writable sret(%"class.cv::Mat") align 8 %0, ptr noundef nonnull align 8 dereferenceable(24) %7, i32 noundef %17)
  br label %18

18:                                               ; preds = %16, %13
  ret void
}

; Function Attrs: mustprogress uwtable
define hidden void @_ZN2cv20TrackerDaSiamRPNImpl4initERKNS_11_InputArrayERKNS_5Rect_IiEE(ptr noundef nonnull align 8 dereferenceable(496) %0, ptr noundef nonnull align 8 dereferenceable(24) %1, ptr noundef nonnull align 4 dereferenceable(16) %2) unnamed_addr #0 align 2 personality ptr @__gxx_personality_v0 {
  %4 = alloca ptr, align 8
  %5 = alloca ptr, align 8
  %6 = alloca ptr, align 8
  %7 = alloca %"class.cv::Mat", align 8
  %8 = alloca %"class.cv::Mat", align 8
  %9 = alloca ptr, align 8
  %10 = alloca i32, align 4
  %11 = alloca %"class.cv::Rect_.3", align 4
  %12 = alloca %"class.cv::Mat", align 8
  store ptr %0, ptr %4, align 8, !tbaa !23
  store ptr %1, ptr %5, align 8, !tbaa !25
  store ptr %2, ptr %6, align 8, !tbaa !27
  %13 = load ptr, ptr %4, align 8
  call void @llvm.lifetime.start.p0(i64 96, ptr %7) #21
  call void @llvm.lifetime.start.p0(i64 96, ptr %8) #21
  %14 = load ptr, ptr %5, align 8, !tbaa !25
  call void @_ZNK2cv11_InputArray6getMatEi(ptr dead_on_unwind writable sret(%"class.cv::Mat") align 8 %8, ptr noundef nonnull align 8 dereferenceable(24) %14, i32 noundef -1)
  invoke void @_ZNK2cv3Mat5cloneEv(ptr dead_on_unwind writable sret(%"class.cv::Mat") align 8 %7, ptr noundef nonnull align 8 dereferenceable(96) %8)
          to label %15 unwind label %50

15:                                               ; preds = %3
  %16 = getelementptr inbounds nuw %"class.cv::TrackerDaSiamRPNImpl", ptr %13, i32 0, i32 5
  %17 = invoke noundef nonnull align 8 dereferenceable(96) ptr @_ZN2cv3MataSEOS0_(ptr noundef nonnull align 8 dereferenceable(96) %16, ptr noundef nonnull align 8 dereferenceable(96) %7)
          to label %18 unwind label %54

18:                                               ; preds = %15
  call void @_ZN2cv3MatD1Ev(ptr noundef nonnull align 8 dereferenceable(96) %7) #21
  call void @_ZN2cv3MatD1Ev(ptr noundef nonnull align 8 dereferenceable(96) %8) #21
  call void @llvm.lifetime.end.p0(i64 96, ptr %8) #21
  call void @llvm.lifetime.end.p0(i64 96, ptr %7) #21
  %19 = getelementptr inbounds nuw %"class.cv::TrackerDaSiamRPNImpl", ptr %13, i32 0, i32 6
  call void @_ZN2cv20TrackerDaSiamRPNImpl13trackerConfig16update_scoreSizeEv(ptr noundef nonnull align 8 dereferenceable(328) %19)
  call void @llvm.lifetime.start.p0(i64 16, ptr %11) #21
  %20 = load ptr, ptr %6, align 8, !tbaa !27
  %21 = getelementptr inbounds nuw %"class.cv::Rect_", ptr %20, i32 0, i32 0
  %22 = load i32, ptr %21, align 4, !tbaa !29
  %23 = sitofp i32 %22 to float
  %24 = load ptr, ptr %6, align 8, !tbaa !27
  %25 = getelementptr inbounds nuw %"class.cv::Rect_", ptr %24, i32 0, i32 2
  %26 = load i32, ptr %25, align 4, !tbaa !31
  %27 = sitofp i32 %26 to float
  %28 = call float @llvm.fmuladd.f32(float %27, float 5.000000e-01, float %23)
  %29 = load ptr, ptr %6, align 8, !tbaa !27
  %30 = getelementptr inbounds nuw %"class.cv::Rect_", ptr %29, i32 0, i32 1
  %31 = load i32, ptr %30, align 4, !tbaa !32
  %32 = sitofp i32 %31 to float
  %33 = load ptr, ptr %6, align 8, !tbaa !27
  %34 = getelementptr inbounds nuw %"class.cv::Rect_", ptr %33, i32 0, i32 3
  %35 = load i32, ptr %34, align 4, !tbaa !33
  %36 = sitofp i32 %35 to float
  %37 = call float @llvm.fmuladd.f32(float %36, float 5.000000e-01, float %32)
  %38 = load ptr, ptr %6, align 8, !tbaa !27
  %39 = getelementptr inbounds nuw %"class.cv::Rect_", ptr %38, i32 0, i32 2
  %40 = load i32, ptr %39, align 4, !tbaa !31
  %41 = sitofp i32 %40 to float
  %42 = load ptr, ptr %6, align 8, !tbaa !27
  %43 = getelementptr inbounds nuw %"class.cv::Rect_", ptr %42, i32 0, i32 3
  %44 = load i32, ptr %43, align 4, !tbaa !33
  %45 = sitofp i32 %44 to float
  call void @_ZN2cv5Rect_IfEC2Effff(ptr noundef nonnull align 4 dereferenceable(16) %11, float noundef %28, float noundef %37, float noundef %41, float noundef %45)
  %46 = getelementptr inbounds nuw %"class.cv::TrackerDaSiamRPNImpl", ptr %13, i32 0, i32 6
  %47 = getelementptr inbounds nuw %"struct.cv::TrackerDaSiamRPNImpl::trackerConfig", ptr %46, i32 0, i32 15
  call void @llvm.memcpy.p0.p0.i64(ptr align 8 %47, ptr align 4 %11, i64 16, i1 false), !tbaa.struct !34
  call void @llvm.lifetime.end.p0(i64 16, ptr %11) #21
  %48 = getelementptr inbounds nuw %"class.cv::TrackerDaSiamRPNImpl", ptr %13, i32 0, i32 5
  call void @_ZN2cv3MatC1ERKS0_(ptr noundef nonnull align 8 dereferenceable(96) %12, ptr noundef nonnull align 8 dereferenceable(96) %48)
  invoke void @_ZN2cv20TrackerDaSiamRPNImpl11trackerInitENS_3MatE(ptr noundef nonnull align 8 dereferenceable(496) %13, ptr noundef %12)
          to label %49 unwind label %59

49:                                               ; preds = %18
  call void @_ZN2cv3MatD1Ev(ptr noundef nonnull align 8 dereferenceable(96) %12) #21
  ret void

50:                                               ; preds = %3
  %51 = landingpad { ptr, i32 }
          cleanup
  %52 = extractvalue { ptr, i32 } %51, 0
  store ptr %52, ptr %9, align 8
  %53 = extractvalue { ptr, i32 } %51, 1
  store i32 %53, ptr %10, align 4
  br label %58

54:                                               ; preds = %15
  %55 = landingpad { ptr, i32 }
          cleanup
  %56 = extractvalue { ptr, i32 } %55, 0
  store ptr %56, ptr %9, align 8
  %57 = extractvalue { ptr, i32 } %55, 1
  store i32 %57, ptr %10, align 4
  call void @_ZN2cv3MatD1Ev(ptr noundef nonnull align 8 dereferenceable(96) %7) #21
  br label %58

58:                                               ; preds = %54, %50
  call void @_ZN2cv3MatD1Ev(ptr noundef nonnull align 8 dereferenceable(96) %8) #21
  call void @llvm.lifetime.end.p0(i64 96, ptr %8) #21
  call void @llvm.lifetime.end.p0(i64 96, ptr %7) #21
  br label %63

59:                                               ; preds = %18
  %60 = landingpad { ptr, i32 }
          cleanup
  %61 = extractvalue { ptr, i32 } %60, 0
  store ptr %61, ptr %9, align 8
  %62 = extractvalue { ptr, i32 } %60, 1
  store i32 %62, ptr %10, align 4
  call void @_ZN2cv3MatD1Ev(ptr noundef nonnull align 8 dereferenceable(96) %12) #21
  br label %63

63:                                               ; preds = %59, %58
  %64 = load ptr, ptr %9, align 8
  %65 = load i32, ptr %10, align 4
  %66 = insertvalue { ptr, i32 } poison, ptr %64, 0
  %67 = insertvalue { ptr, i32 } %66, i32 %65, 1
  resume { ptr, i32 } %67
}