; Function Attrs: mustprogress uwtable
define hidden void @_ZN2cv20TrackerDaSiamRPNImpl4initERKNS_11_InputArrayERKNS_5Rect_IiEE(ptr noundef nonnull align 8 dereferenceable(496) %0, ptr noundef nonnull align 8 dereferenceable(24) %1, ptr noundef nonnull readonly align 4 captures(none) dereferenceable(16) %2) unnamed_addr #0 align 2 personality ptr @__gxx_personality_v0 {
  %4 = alloca %"class.cv::Mat", align 8
  %5 = alloca %"class.cv::Mat", align 8
  %6 = alloca %"class.cv::Mat", align 8
  call void @llvm.lifetime.start.p0(i64 96, ptr nonnull %4) #23
  call void @llvm.lifetime.start.p0(i64 96, ptr nonnull %5) #23
  %7 = tail call noundef i32 @_ZNK2cv11_InputArray4kindEv(ptr noundef nonnull align 8 dereferenceable(24) %1), !noalias !20
  %8 = icmp eq i32 %7, 65536
  br i1 %8, label %9, label %12

9:                                                ; preds = %3
  %10 = getelementptr inbounds nuw i8, ptr %1, i64 8
  %11 = load ptr, ptr %10, align 8, !tbaa !23, !noalias !20
  call void @_ZN2cv3MatC1ERKS0_(ptr noundef nonnull align 8 dereferenceable(96) %5, ptr noundef nonnull align 8 dereferenceable(96) %11)
  br label %_ZNK2cv11_InputArray6getMatEi.exit

12:                                               ; preds = %3
  call void @_ZNK2cv11_InputArray7getMat_Ei(ptr dead_on_unwind nonnull writable sret(%"class.cv::Mat") align 8 %5, ptr noundef nonnull align 8 dereferenceable(24) %1, i32 noundef -1)
  br label %_ZNK2cv11_InputArray6getMatEi.exit

_ZNK2cv11_InputArray6getMatEi.exit:               ; preds = %9, %12
  invoke void @_ZNK2cv3Mat5cloneEv(ptr dead_on_unwind nonnull writable sret(%"class.cv::Mat") align 8 %4, ptr noundef nonnull align 8 dereferenceable(96) %5)
          to label %13 unwind label %42

13:                                               ; preds = %_ZNK2cv11_InputArray6getMatEi.exit
  %14 = getelementptr inbounds nuw i8, ptr %0, i64 72
  %15 = invoke noundef nonnull align 8 dereferenceable(96) ptr @_ZN2cv3MataSEOS0_(ptr noundef nonnull align 8 dereferenceable(96) %14, ptr noundef nonnull align 8 dereferenceable(96) %4)
          to label %16 unwind label %44

16:                                               ; preds = %13
  call void @_ZN2cv3MatD1Ev(ptr noundef nonnull align 8 dereferenceable(96) %4) #23
  call void @_ZN2cv3MatD1Ev(ptr noundef nonnull align 8 dereferenceable(96) %5) #23
  call void @llvm.lifetime.end.p0(i64 96, ptr nonnull %5) #23
  call void @llvm.lifetime.end.p0(i64 96, ptr nonnull %4) #23
  %17 = getelementptr inbounds nuw i8, ptr %0, i64 196
  %18 = load i32, ptr %17, align 4, !tbaa !26
  %19 = getelementptr inbounds nuw i8, ptr %0, i64 192
  %20 = load i32, ptr %19, align 8, !tbaa !46
  %21 = sub nsw i32 %18, %20
  %22 = getelementptr inbounds nuw i8, ptr %0, i64 184
  %23 = load i32, ptr %22, align 8, !tbaa !47
  %24 = sdiv i32 %21, %23
  %25 = add nsw i32 %24, 1
  %26 = getelementptr inbounds nuw i8, ptr %0, i64 488
  store i32 %25, ptr %26, align 8, !tbaa !48
  %27 = load i32, ptr %2, align 4, !tbaa !49
  %28 = sitofp i32 %27 to float
  %29 = getelementptr inbounds nuw i8, ptr %2, i64 8
  %30 = load i32, ptr %29, align 4, !tbaa !51
  %31 = sitofp i32 %30 to float
  %32 = call float @llvm.fmuladd.f32(float %31, float 5.000000e-01, float %28)
  %33 = getelementptr inbounds nuw i8, ptr %2, i64 4
  %34 = load i32, ptr %33, align 4, !tbaa !52
  %35 = sitofp i32 %34 to float
  %36 = getelementptr inbounds nuw i8, ptr %2, i64 12
  %37 = load i32, ptr %36, align 4, !tbaa !53
  %38 = sitofp i32 %37 to float
  %39 = call float @llvm.fmuladd.f32(float %38, float 5.000000e-01, float %35)
  %40 = getelementptr inbounds nuw i8, ptr %0, i64 472
  store float %32, ptr %40, align 8, !tbaa !54
  %.sroa.4.0..sroa_idx = getelementptr inbounds nuw i8, ptr %0, i64 476
  store float %39, ptr %.sroa.4.0..sroa_idx, align 4, !tbaa !54
  %.sroa.5.0..sroa_idx = getelementptr inbounds nuw i8, ptr %0, i64 480
  store float %31, ptr %.sroa.5.0..sroa_idx, align 8, !tbaa !54
  %.sroa.6.0..sroa_idx = getelementptr inbounds nuw i8, ptr %0, i64 484
  store float %38, ptr %.sroa.6.0..sroa_idx, align 4, !tbaa !54
  call void @_ZN2cv3MatC1ERKS0_(ptr noundef nonnull align 8 dereferenceable(96) %6, ptr noundef nonnull align 8 dereferenceable(96) %14)
  invoke void @_ZN2cv20TrackerDaSiamRPNImpl11trackerInitENS_3MatE(ptr noundef nonnull align 8 dereferenceable(496) %0, ptr noundef nonnull %6)
          to label %41 unwind label %47

41:                                               ; preds = %16
  call void @_ZN2cv3MatD1Ev(ptr noundef nonnull align 8 dereferenceable(96) %6) #23
  ret void

42:                                               ; preds = %_ZNK2cv11_InputArray6getMatEi.exit
  %43 = landingpad { ptr, i32 }
          cleanup
  br label %46

44:                                               ; preds = %13
  %45 = landingpad { ptr, i32 }
          cleanup
  call void @_ZN2cv3MatD1Ev(ptr noundef nonnull align 8 dereferenceable(96) %4) #23
  br label %46

46:                                               ; preds = %44, %42
  %.pn = phi { ptr, i32 } [ %45, %44 ], [ %43, %42 ]
  call void @_ZN2cv3MatD1Ev(ptr noundef nonnull align 8 dereferenceable(96) %5) #23
  call void @llvm.lifetime.end.p0(i64 96, ptr nonnull %5) #23
  call void @llvm.lifetime.end.p0(i64 96, ptr nonnull %4) #23
  br label %49

47:                                               ; preds = %16
  %48 = landingpad { ptr, i32 }
          cleanup
  call void @_ZN2cv3MatD1Ev(ptr noundef nonnull align 8 dereferenceable(96) %6) #23
  br label %49

49:                                               ; preds = %47, %46
  %.pn12 = phi { ptr, i32 } [ %48, %47 ], [ %.pn, %46 ]
  resume { ptr, i32 } %.pn12
}